******************************************************************************
            TI ARM Clang Linker PC v4.0.3                      
******************************************************************************
>> Linked Mon Jul 28 18:05:10 2025

OUTPUT FILE NAME:   <mspm0-modules-car.out>
ENTRY POINT SYMBOL: "_c_int00_noargs"  address: 00005385


MEMORY CONFIGURATION

         name            origin    length      used     unused   attr    fill
----------------------  --------  ---------  --------  --------  ----  --------
  FLASH                 00000000   00020000  00006d00  00019300  R  X
  SRAM                  20200000   00008000  00001086  00006f7a  RW X
  BCR_CONFIG            41c00000   000000ff  00000000  000000ff  R   
  BSL_CONFIG            41c00100   00000080  00000000  00000080  R   


SEGMENT ALLOCATION MAP

run origin  load origin   length   init length attrs members
----------  ----------- ---------- ----------- ----- -------
00000000    00000000    00006d00   00006d00    r-x
  00000000    00000000    000000c0   000000c0    r-- .intvecs
  000000c0    000000c0    00005600   00005600    r-x .text
  000056c0    000056c0    000015a8   000015a8    r-- .rodata
  00006c68    00006c68    00000098   00000098    r-- .cinit
20200000    20200000    00000e89   00000000    rw-
  20200000    20200000    00000800   00000000    rw- .sysmem
  20200800    20200800    00000455   00000000    rw- .bss
  20200c58    20200c58    00000231   00000000    rw- .data
20207e00    20207e00    00000200   00000000    rw-
  20207e00    20207e00    00000200   00000000    rw- .stack


SECTION ALLOCATION MAP

 output                                  attributes/
section   page    origin      length       input sections
--------  ----  ----------  ----------   ----------------
.intvecs   0    00000000    000000c0     
                  00000000    000000c0     startup_mspm0g350x_ticlang.o (.intvecs)

.text      0    000000c0    00005600     
                  000000c0    00000364     libc.a : e_asin.c.obj (.text.asin)
                  00000424    000002f8            : s_atan.c.obj (.text.atan)
                  0000071c    000002c0     oled_hardware_i2c.o (.text.OLED_Init)
                  000009dc    000002b0     inv_mpu_dmp_motion_driver.o (.text.dmp_enable_feature)
                  00000c8c    00000240     Motor.o (.text.Motor_Set_Pwm)
                  00000ecc    00000210     motor_control.o (.text.MotorControl_Update)
                  000010dc    00000210     mpu6050.o (.text.Read_Quad)
                  000012ec    000001e4     inv_mpu.o (.text.mpu_lp_accel_mode)
                  000014d0    000001a8     inv_mpu_dmp_motion_driver.o (.text.dmp_read_fifo)
                  00001678    00000192     libclang_rt.builtins.a : adddf3.S.obj (.text.adddf3_subdf3)
                  0000180a    00000002                            : aeabi_div0.c.obj (.text.__aeabi_idiv0)
                  0000180c    00000188     linetracker.o (.text.LineTracker_ReadSensors)
                  00001994    00000188     libc.a : e_atan2.c.obj (.text.atan2)
                  00001b1c    00000170            : e_sqrt.c.obj (.text.sqrt)
                  00001c8c    00000154     mspm0_i2c.o (.text.mspm0_i2c_read)
                  00001de0    00000150     inv_mpu.o (.text.mpu_reset_fifo)
                  00001f30    00000148     inv_mpu.o (.text.mpu_load_firmware)
                  00002078    00000144     oled_hardware_i2c.o (.text.OLED_Clear)
                  000021bc    00000134     oled_hardware_i2c.o (.text.OLED_WR_Byte)
                  000022f0    00000134     inv_mpu_dmp_motion_driver.o (.text.dmp_set_tap_thresh)
                  00002424    00000130     mspm0_i2c.o (.text.mspm0_i2c_write)
                  00002554    00000114     libc.a : memory.c.obj (.text.aligned_alloc)
                  00002668    0000010c     libclang_rt.builtins.a : divdf3.S.obj (.text.__divdf3)
                  00002774    00000104     driverlib.a : dl_timer.o (.text.DL_Timer_initFourCCPWMMode)
                  00002878    00000100     pid.o (.text.PID_Calculate)
                  00002978    000000f8     libc.a : fputs.c.obj (.text.fputs)
                  00002a70    000000f8     inv_mpu.o (.text.mpu_set_bypass)
                  00002b68    000000f4     inv_mpu.o (.text.mpu_init)
                  00002c5c    000000ec     inv_mpu_dmp_motion_driver.o (.text.dmp_set_orientation)
                  00002d48    000000e8     driverlib.a : dl_timer.o (.text.DL_Timer_initTimerMode)
                  00002e30    000000e8     libc.a : memory.c.obj (.text.free)
                  00002f18    000000e4     libclang_rt.builtins.a : muldf3.S.obj (.text.__muldf3)
                  00002ffc    000000e4     inv_mpu.o (.text.mpu_set_sample_rate)
                  000030e0    000000e0     libc.a : setvbuf.c.obj (.text.setvbuf)
                  000031c0    000000dc     driverlib.a : dl_sysctl_mspm0g1x0x_g3x0x.o (.text.DL_SYSCTL_configSYSPLL)
                  0000329c    000000dc     oled_hardware_i2c.o (.text.OLED_ShowChar)
                  00003378    000000dc     inv_mpu.o (.text.mpu_set_sensors)
                  00003454    000000d8     libclang_rt.builtins.a : addsf3.S.obj (.text)
                  0000352c    000000d0     inv_mpu.o (.text.mpu_set_dmp_state)
                  000035fc    000000cc     ti_msp_dl_config.o (.text.SYSCFG_DL_GPIO_init)
                  000036c8    000000c8     Encoder.o (.text.Encoder_IRQHandler)
                  00003790    000000c8     linetracker.o (.text.LineTracker_GetLineState)
                  00003858    000000b8     mpu6050.o (.text.MPU6050_Init)
                  00003910    000000b0     Motor.o (.text.Motor_Stop)
                  000039c0    000000b0     test.o (.text.Test_LineTracker)
                  00003a70    000000ac     motor_control.o (.text.MotorControl_Init)
                  00003b1c    000000ac     inv_mpu.o (.text.mpu_configure_fifo)
                  00003bc8    000000a4     inv_mpu.o (.text.mpu_read_fifo_stream)
                  00003c6c    0000009a     libc.a : memcpy16.S.obj (.text:memcpy)
                  00003d06    00000002            : _lock.c.obj (.text._nop)
                  00003d08    00000090     ti_msp_dl_config.o (.text.SYSCFG_DL_PWM_MOTOR_init)
                  00003d98    0000008c     libclang_rt.builtins.a : mulsf3.S.obj (.text.__mulsf3)
                  00003e24    0000008c     mspm0_i2c.o (.text.mpu6050_i2c_sda_unlock)
                  00003eb0    00000088     libc.a : strcmp-armv6m.S.obj (.text:strcmp)
                  00003f38    00000084     Motor.o (.text.Motor_Init)
                  00003fbc    00000082     libclang_rt.builtins.a : divsf3.S.obj (.text.__divsf3)
                  0000403e    00000002     mpu6050.o (.text.android_orient_cb)
                  00004040    0000007c     libc.a : fclose.c.obj (.text.__TI_closefile)
                  000040bc    0000007c            : copy_decompress_lzss.c.obj (.text:decompress:lzss)
                  00004138    0000007a     oled_hardware_i2c.o (.text.OLED_ShowString)
                  000041b2    00000002     mpu6050.o (.text.tap_cb)
                  000041b4    00000074     libclang_rt.builtins.a : comparedf2.c.obj (.text.__gedf2)
                  00004228    00000008     libc.a : aeabi_portable.c.obj (.text.__aeabi_errno_addr)
                  00004230    00000074     libclang_rt.builtins.a : truncdfsf2.S.obj (.text.__truncdfsf2)
                  000042a4    00000074     inv_mpu.o (.text.mpu_set_lpf)
                  00004318    00000070     ti_msp_dl_config.o (.text.SYSCFG_DL_SYSCTL_init)
                  00004388    0000006c     Encoder.o (.text.Encoder_Timer_IRQHandler)
                  000043f4    0000006c     libsysbm.a : hostlseek.c.obj (.text.HOSTlseek)
                  00004460    0000006c                : hostrename.c.obj (.text.HOSTrename)
                  000044cc    0000006c     libc.a : fseek.c.obj (.text.fseeko)
                  00004538    0000006c            : getdevice.c.obj (.text.getdevice)
                  000045a4    0000006c     inv_mpu.o (.text.mpu_write_mem)
                  00004610    00000068     libclang_rt.builtins.a : comparedf2.c.obj (.text.__ledf2)
                  00004678    00000068     inv_mpu_dmp_motion_driver.o (.text.dmp_set_fifo_rate)
                  000046e0    00000068     main.o (.text.main)
                  00004748    00000064     libc.a : _io_perm.c.obj (.text.__TI_wrt_ok)
                  000047ac    00000064            : memory.c.obj (.text.split)
                  00004810    00000062     libclang_rt.builtins.a : aeabi_dcmp.S.obj (.text.__aeabi_dcmp)
                  00004872    00000002     --HOLE-- [fill = 0]
                  00004874    00000062                            : aeabi_fcmp.S.obj (.text.__aeabi_fcmp)
                  000048d6    00000062     libc.a : memset16.S.obj (.text:memset)
                  00004938    00000060     libsysbm.a : hostopen.c.obj (.text.HOSTopen)
                  00004998    0000005e     driverlib.a : dl_i2c.o (.text.DL_I2C_fillControllerTXFIFO)
                  000049f6    00000002     --HOLE-- [fill = 0]
                  000049f8    0000005c     Encoder.o (.text.Encoder_Init)
                  00004a54    00000058     libsysbm.a : hostread.c.obj (.text.HOSTread)
                  00004aac    00000058                : hostwrite.c.obj (.text.HOSTwrite)
                  00004b04    00000056     libclang_rt.builtins.a : aeabi_idivmod.S.obj (.text.__aeabi_idivmod)
                  00004b5a    00000002     --HOLE-- [fill = 0]
                  00004b5c    00000054     ti_msp_dl_config.o (.text.SYSCFG_DL_I2C_MPU6050_init)
                  00004bb0    00000054     ti_msp_dl_config.o (.text.SYSCFG_DL_I2C_OLED_init)
                  00004c04    00000054     ti_msp_dl_config.o (.text.SYSCFG_DL_initPower)
                  00004c58    00000052     libc.a : fflush.c.obj (.text.__TI_doflush)
                  00004caa    00000002     --HOLE-- [fill = 0]
                  00004cac    00000050     libsysbm.a : close.c.obj (.text.close)
                  00004cfc    0000004c     ti_msp_dl_config.o (.text.SYSCFG_DL_TIMER_CALC_init)
                  00004d48    00000048     libsysbm.a : hostclose.c.obj (.text.HOSTclose)
                  00004d90    00000048                : hostunlink.c.obj (.text.HOSTunlink)
                  00004dd8    00000044     driverlib.a : dl_sysctl_mspm0g1x0x_g3x0x.o (.text.DL_SYSCTL_switchMCLKfromSYSOSCtoHSCLK)
                  00004e1c    00000040     libclang_rt.builtins.a : aeabi_uidivmod.S.obj (.text.__aeabi_uidivmod)
                  00004e5c    00000040                            : extendsfdf2.S.obj (.text.__extendsfdf2)
                  00004e9c    0000003c     driverlib.a : dl_i2c.o (.text.DL_I2C_flushControllerTXFIFO)
                  00004ed8    0000003c     libclang_rt.builtins.a : floatsisf.S.obj (.text.__floatsisf)
                  00004f14    0000003c                            : comparesf2.S.obj (.text.__gtsf2)
                  00004f50    0000003c     libc.a : autoinit.c.obj (.text:__TI_auto_init_nobinit_nopinit)
                  00004f8c    0000003a     libclang_rt.builtins.a : comparesf2.S.obj (.text.__eqsf2)
                  00004fc6    00000002     --HOLE-- [fill = 0]
                  00004fc8    0000003a                            : muldsi3.S.obj (.text.__muldsi3)
                  00005002    00000002     --HOLE-- [fill = 0]
                  00005004    00000038     interrupt.o (.text.GROUP1_IRQHandler)
                  0000503c    00000038     motor_control.o (.text.MotorControl_SetMode)
                  00005074    00000038     clock.o (.text.SysTick_Init)
                  000050ac    00000038     libclang_rt.builtins.a : fixsfsi.S.obj (.text.__fixsfsi)
                  000050e4    00000034     ti_msp_dl_config.o (.text.SYSCFG_DL_init)
                  00005118    00000034     libc.a : fopen.c.obj (.text.__TI_cleanup)
                  0000514c    00000034     libsysbm.a : trgmsg.c.obj (.text.__TI_readmsg)
                  00005180    00000034                : trgmsg.c.obj (.text.__TI_writemsg)
                  000051b4    00000034     libc.a : exit.c.obj (.text.exit)
                  000051e8    00000034            : getdevice.c.obj (.text.finddevice)
                  0000521c    00000034     inv_mpu.o (.text.mpu_get_accel_fsr)
                  00005250    00000034     clock.o (.text.mspm0_delay_ms)
                  00005284    00000032     libclang_rt.builtins.a : fixunssfsi.S.obj (.text.__fixunssfsi)
                  000052b6    00000002     --HOLE-- [fill = 0]
                  000052b8    0000002c     libsysbm.a : unlink.c.obj (.text.unlink)
                  000052e4    00000028     libclang_rt.builtins.a : floatunsisf.S.obj (.text.__floatunsisf)
                  0000530c    00000028     libc.a : memory.c.obj (.text.free_list_insert)
                  00005334    00000028     libsysbm.a : lseek.c.obj (.text.lseek)
                  0000535c    00000028                : write.c.obj (.text.write)
                  00005384    00000028     libc.a : boot_cortex_m.c.obj (.text:_c_int00_noargs)
                  000053ac    00000026     driverlib.a : dl_i2c.o (.text.DL_I2C_setClockConfig)
                  000053d2    00000002     --HOLE-- [fill = 0]
                  000053d4    00000024     linetracker.o (.text.LineTracker_Init)
                  000053f8    00000024     libc.a : fputs.c.obj (.text.puts)
                  0000541c    00000020     inv_mpu.o (.text.mpu_get_gyro_fsr)
                  0000543c    0000001c     driverlib.a : dl_timer.o (.text.DL_Timer_setCaptCompUpdateMethod)
                  00005458    0000001c                 : dl_timer.o (.text.DL_Timer_setClockConfig)
                  00005474    0000001c     pid.o (.text.PID_Init)
                  00005490    0000001c     inv_mpu_dmp_motion_driver.o (.text.dmp_load_motion_driver_firmware)
                  000054ac    0000001c     libc.a : memory.c.obj (.text.free_list_remove)
                  000054c8    0000001c     inv_mpu.o (.text.mpu_get_sample_rate)
                  000054e4    00000018     driverlib.a : dl_timer.o (.text.DL_Timer_setCaptureCompareOutCtl)
                  000054fc    00000018     clock.o (.text.mspm0_get_clock_ms)
                  00005514    00000014     Encoder.o (.text.Encoder_GetSpeed_PPS)
                  00005528    00000012     pid.o (.text.PID_Reset)
                  0000553a    00000012     libc.a : copy_decompress_none.c.obj (.text:decompress:none)
                  0000554c    00000010     driverlib.a : dl_timer.o (.text.DL_Timer_setCaptureCompareValue)
                  0000555c    00000010     interrupt.o (.text.SysTick_Handler)
                  0000556c    00000010     libc.a : copy_zero_init.c.obj (.text:decompress:ZI)
                  0000557c    0000000e            : memory.c.obj (.text.OUTLINED_FUNCTION_0)
                  0000558a    0000000e     libsysbm.a : hostrename.c.obj (.text.strcpy)
                  00005598    0000000e                : hostrename.c.obj (.text.strlen)
                  000055a6    00000002     --HOLE-- [fill = 0]
                  000055a8    0000000c     linetracker.o (.text.LineTracker_IsLineDetected)
                  000055b4    0000000c     motor_control.o (.text.MotorControl_SetBaseSpeed)
                  000055c0    0000000c     interrupt.o (.text.TIMA1_IRQHandler)
                  000055cc    0000000c     libclang_rt.builtins.a : aeabi_memset.S.obj (.text.__aeabi_memclr)
                  000055d8    0000000c     inv_mpu_dmp_motion_driver.o (.text.dmp_register_android_orient_cb)
                  000055e4    0000000c     inv_mpu_dmp_motion_driver.o (.text.dmp_register_tap_cb)
                  000055f0    0000000c     libc.a : memory.c.obj (.text.malloc)
                  000055fc    0000000a     driverlib.a : dl_common.o (.text.DL_Common_delayCycles)
                  00005606    0000000a     libc.a : e_asin.c.obj (.text.OUTLINED_FUNCTION_0)
                  00005610    00000010     libclang_rt.builtins.a : muldf3.S.obj (.tramp.__aeabi_dmul.1)
                  00005620    0000000a     libc.a : s_atan.c.obj (.text.OUTLINED_FUNCTION_0)
                  0000562a    0000000a            : e_asin.c.obj (.text.OUTLINED_FUNCTION_1)
                  00005634    0000000a            : e_asin.c.obj (.text.OUTLINED_FUNCTION_3)
                  0000563e    00000002     --HOLE-- [fill = 0]
                  00005640    00000010     libclang_rt.builtins.a : divdf3.S.obj (.tramp.__aeabi_ddiv.1)
                  00005650    00000008     libc.a : s_atan.c.obj (.text.OUTLINED_FUNCTION_2)
                  00005658    00000008     libclang_rt.builtins.a : aeabi_memcpy.S.obj (.text.__aeabi_memcpy)
                  00005660    00000008     oled_hardware_i2c.o (.text.delay_ms)
                  00005668    00000008     libc.a : fseek.c.obj (.text.fseek)
                  00005670    00000008     libsysbm.a : remove.c.obj (.text.remove)
                  00005678    00000006     libc.a : s_atan.c.obj (.text.OUTLINED_FUNCTION_1)
                  0000567e    00000002     --HOLE-- [fill = 0]
                  00005680    00000010     libclang_rt.builtins.a : adddf3.S.obj (.tramp.__aeabi_dadd.1)
                  00005690    00000006     libc.a : e_asin.c.obj (.text.OUTLINED_FUNCTION_2)
                  00005696    00000006            : exit.c.obj (.text:abort)
                  0000569c    00000004     startup_mspm0g350x_ticlang.o (.text.Default_Handler)
                  000056a0    00000004     libsysbm.a : hostexit.c.obj (.text.HOSTexit)
                  000056a4    00000004     libc.a : e_asin.c.obj (.text.OUTLINED_FUNCTION_4)
                  000056a8    00000004     pid.o (.text.PID_SetTarget)
                  000056ac    00000004     startup_mspm0g350x_ticlang.o (.text.Reset_Handler)
                  000056b0    00000004     libc.a : pre_init.c.obj (.text._system_pre_init)
                  000056b4    0000000c     --HOLE-- [fill = 0]

.cinit     0    00006c68    00000098     
                  00006c68    00000074     (.cinit..data.load) [load image, compression = lzss]
                  00006cdc    0000000c     (__TI_handler_table)
                  00006ce8    00000008     (.cinit..bss.load) [load image, compression = zero_init]
                  00006cf0    00000010     (__TI_cinit_table)

.rodata    0    000056c0    000015a8     
                  000056c0    00000bf6     inv_mpu_dmp_motion_driver.o (.rodata.dmp_memory)
                  000062b6    000005f0     oled_hardware_i2c.o (.rodata.asc2_1608)
                  000068a6    00000228     oled_hardware_i2c.o (.rodata.asc2_0806)
                  00006ace    00000002     ti_msp_dl_config.o (.rodata.gI2C_MPU6050ClockConfig)
                  00006ad0    00000040     libc.a : s_atan.c.obj (.rodata.cst32)
                  00006b10    00000036     linetracker.o (.rodata.str1.14744177954753930382.1)
                  00006b46    00000002     ti_msp_dl_config.o (.rodata.gI2C_OLEDClockConfig)
                  00006b48    00000028     ti_msp_dl_config.o (.rodata.gSYSPLLConfig)
                  00006b70    00000028     inv_mpu.o (.rodata.test)
                  00006b98    0000001e     inv_mpu.o (.rodata.reg)
                  00006bb6    00000018     inv_mpu.o (.rodata.cst8)
                  00006bce    00000002     libc.a : fputs.c.obj (.rodata.str1.16607721268415185390.1)
                  00006bd0    00000014     ti_msp_dl_config.o (.rodata.gTIMER_CALCTimerConfig)
                  00006be4    00000011     main.o (.rodata.str1.17100691992556644108.1)
                  00006bf5    0000000d     main.o (.rodata.str1.8154729771448623357.1)
                  00006c02    0000000c     inv_mpu.o (.rodata.hw)
                  00006c0e    0000000c     main.o (.rodata.str1.15159059442110792349.1)
                  00006c1a    0000000c     test.o (.rodata.str1.5367092921198936103.1)
                  00006c26    0000000a     test.o (.rodata.str1.15063401932695328655.1)
                  00006c30    00000009     test.o (.rodata.str1.10380555884193877293.1)
                  00006c39    00000003     inv_mpu_dmp_motion_driver.o (.rodata..L__const.dmp_set_orientation.accel_axes)
                  00006c3c    00000008     ti_msp_dl_config.o (.rodata.gPWM_MOTORConfig)
                  00006c44    00000008     test.o (.rodata.str1.10962632097342045398.1)
                  00006c4c    00000008     test.o (.rodata.str1.11489066597380201119.1)
                  00006c54    00000008     test.o (.rodata.str1.2830457350749635571.1)
                  00006c5c    00000003     inv_mpu_dmp_motion_driver.o (.rodata..L__const.dmp_set_orientation.gyro_axes)
                  00006c5f    00000003     ti_msp_dl_config.o (.rodata.gPWM_MOTORClockConfig)
                  00006c62    00000003     ti_msp_dl_config.o (.rodata.gTIMER_CALCClockConfig)
                  00006c65    00000003     --HOLE-- [fill = 0]

.init_array 
*          0    00000000    00000000     UNINITIALIZED

.binit     0    00000000    00000000     

.sysmem    0    20200000    00000800     UNINITIALIZED
                  20200000    00000010     libc.a : memory.c.obj (.sysmem)
                  20200010    000007f0     --HOLE--

.bss       0    20200800    00000455     UNINITIALIZED
                  20200800    00000120     libsysbm.a : trgmsg.c.obj (.bss:_CIOBUF_)
                  20200920    000000cc     (.common:g_motorControl)
                  202009ec    000000bc     (.common:gPWM_MOTORBackup)
                  20200aa8    000000bc     (.common:gTIMER_CALCBackup)
                  20200b64    000000a0     libc.a : defs.c.obj (.bss.__TI_tmpnams)
                  20200c04    00000010     (.common:quat)
                  20200c14    0000000e     (.common:g_lineTracker)
                  20200c22    00000008     libsysbm.a : hostopen.c.obj (.bss.parmbuf)
                  20200c2a    00000006     (.common:accel)
                  20200c30    00000006     (.common:gyro)
                  20200c36    00000002     (.common:sensors)
                  20200c38    00000004     libc.a : memory.c.obj (.bss.sys_free)
                  20200c3c    00000004     (.common:pitch)
                  20200c40    00000004     (.common:roll)
                  20200c44    00000004     (.common:sensor_timestamp)
                  20200c48    00000004     (.common:start_time)
                  20200c4c    00000004     (.common:tick_ms)
                  20200c50    00000004     (.common:yaw)
                  20200c54    00000001     (.common:more)

.data      0    20200c58    00000231     UNINITIALIZED
                  20200c58    000000f0     libc.a : defs.c.obj (.data._ftable)
                  20200d48    00000078     libsysbm.a : host_device.c.obj (.data._device)
                  20200dc0    00000050                : host_device.c.obj (.data._stream)
                  20200e10    0000002c     inv_mpu.o (.data.st)
                  20200e3c    00000008     libc.a : exit.c.obj (.data..L_MergedGlobals)
                  20200e44    00000008     Encoder.o (.data.encoder_count)
                  20200e4c    00000008     Encoder.o (.data.last_count)
                  20200e54    00000008     Encoder.o (.data.motor_speed_pps)
                  20200e5c    00000008     Encoder.o (.data.motor_speed_rps)
                  20200e64    00000004     libc.a : defs.c.obj (.data.__TI_ft_end)
                  20200e68    00000004            : aeabi_portable.c.obj (.data.__aeabi_errno)
                  20200e6c    00000004            : _lock.c.obj (.data._lock)
                  20200e70    00000004            : _lock.c.obj (.data._unlock)
                  20200e74    00000004     inv_mpu_dmp_motion_driver.o (.data.dmp.0)
                  20200e78    00000004     inv_mpu_dmp_motion_driver.o (.data.dmp.1)
                  20200e7c    00000002     inv_mpu_dmp_motion_driver.o (.data.dmp.2)
                  20200e7e    00000001     inv_mpu_dmp_motion_driver.o (.data.dmp.5)
                  20200e7f    00000001     Motor.o (.data.pwm_running)
                  20200e80    00000002     inv_mpu_dmp_motion_driver.o (.data.dmp.3)
                  20200e82    00000002     --HOLE--
                  20200e84    00000002     inv_mpu_dmp_motion_driver.o (.data.dmp.4)
                  20200e86    00000002     --HOLE--
                  20200e88    00000001     libc.a : memory.c.obj (.data.memory_is_initialized)

.stack     0    20207e00    00000200     UNINITIALIZED
                  20207e00    00000004     libc.a : boot_cortex_m.c.obj (.stack)
                  20207e04    000001fc     --HOLE--

__llvm_prf_cnts 
*          0    20200000    00000000     UNINITIALIZED

__llvm_prf_bits 
*          0    20200000    00000000     UNINITIALIZED

MODULE SUMMARY

       Module                         code    ro data   rw data
       ------                         ----    -------   -------
    .\
       ti_msp_dl_config.o             840     78        376    
       startup_mspm0g350x_ticlang.o   8       192       0      
       main.o                         104     42        0      
    +--+------------------------------+-------+---------+---------+
       Total:                         952     312       376    
                                                               
    .\Drivers\LineTracker\
       linetracker.o                  640     54        14     
    +--+------------------------------+-------+---------+---------+
       Total:                         640     54        14     
                                                               
    .\Drivers\MPU6050\
       inv_mpu_dmp_motion_driver.o    1812    3068      15     
       inv_mpu.o                      2968    106       44     
       mspm0_i2c.o                    784     0         0      
       mpu6050.o                      716     0         47     
    +--+------------------------------+-------+---------+---------+
       Total:                         6280    3174      106    
                                                               
    .\Drivers\MSPM0\
       clock.o                        132     0         8      
       interrupt.o                    84      0         0      
    +--+------------------------------+-------+---------+---------+
       Total:                         216     0         8      
                                                               
    .\Drivers\Motor_Encoder_PID\
       motor_control.o                768     0         204    
       Motor.o                        884     0         1      
       Encoder.o                      420     0         32     
       pid.o                          306     0         0      
    +--+------------------------------+-------+---------+---------+
       Total:                         2378    0         237    
                                                               
    .\Drivers\OLED_Hardware_I2C\
       oled_hardware_i2c.o            1686    2072      0      
    +--+------------------------------+-------+---------+---------+
       Total:                         1686    2072      0      
                                                               
    .\Test\
       test.o                         176     55        0      
    +--+------------------------------+-------+---------+---------+
       Total:                         176     55        0      
                                                               
    C:/ti/mspm0_sdk_2_05_00_05/source/ti/driverlib/lib/ticlang/m0p/mspm0g1x0x_g3x0x/driverlib.a
       dl_timer.o                     588     0         0      
       dl_sysctl_mspm0g1x0x_g3x0x.o   288     0         0      
       dl_i2c.o                       192     0         0      
       dl_common.o                    10      0         0      
    +--+------------------------------+-------+---------+---------+
       Total:                         1078    0         0      
                                                               
    C:\ti\ccs2020\ccs\tools\compiler\ti-cgt-armllvm_4.0.3.LTS\lib\armv6m-ti-none-eabi/c/libc.a
       e_asin.c.obj                   908     0         0      
       s_atan.c.obj                   784     64        0      
       memory.c.obj                   702     0         5      
       defs.c.obj                     0       0         404    
       e_atan2.c.obj                  392     0         0      
       e_sqrt.c.obj                   368     0         0      
       fputs.c.obj                    284     2         0      
       setvbuf.c.obj                  224     0         0      
       getdevice.c.obj                160     0         0      
       memcpy16.S.obj                 154     0         0      
       strcmp-armv6m.S.obj            136     0         0      
       copy_decompress_lzss.c.obj     124     0         0      
       fclose.c.obj                   124     0         0      
       fseek.c.obj                    116     0         0      
       _io_perm.c.obj                 100     0         0      
       memset16.S.obj                 98      0         0      
       fflush.c.obj                   82      0         0      
       exit.c.obj                     58      0         8      
       autoinit.c.obj                 60      0         0      
       fopen.c.obj                    52      0         0      
       boot_cortex_m.c.obj            40      0         0      
       copy_decompress_none.c.obj     18      0         0      
       copy_zero_init.c.obj           16      0         0      
       aeabi_portable.c.obj           8       0         4      
       _lock.c.obj                    2       0         8      
       pre_init.c.obj                 4       0         0      
    +--+------------------------------+-------+---------+---------+
       Total:                         5014    66        429    
                                                               
    C:\ti\ccs2020\ccs\tools\compiler\ti-cgt-armllvm_4.0.3.LTS\lib\armv6m-ti-none-eabi/c/libsysbm.a
       trgmsg.c.obj                   104     0         288    
       host_device.c.obj              0       0         200    
       hostrename.c.obj               136     0         0      
       hostlseek.c.obj                108     0         0      
       hostopen.c.obj                 96      0         8      
       hostread.c.obj                 88      0         0      
       hostwrite.c.obj                88      0         0      
       close.c.obj                    80      0         0      
       hostclose.c.obj                72      0         0      
       hostunlink.c.obj               72      0         0      
       unlink.c.obj                   44      0         0      
       lseek.c.obj                    40      0         0      
       write.c.obj                    40      0         0      
       remove.c.obj                   8       0         0      
       hostexit.c.obj                 4       0         0      
    +--+------------------------------+-------+---------+---------+
       Total:                         980     0         496    
                                                               
    C:\ti\ccs2020\ccs\tools\compiler\ti-cgt-armllvm_4.0.3.LTS\lib\armv6m-ti-none-eabi/libclang_rt.builtins.a
       adddf3.S.obj                   418     0         0      
       divdf3.S.obj                   284     0         0      
       muldf3.S.obj                   244     0         0      
       comparedf2.c.obj               220     0         0      
       addsf3.S.obj                   216     0         0      
       mulsf3.S.obj                   140     0         0      
       divsf3.S.obj                   130     0         0      
       comparesf2.S.obj               118     0         0      
       truncdfsf2.S.obj               116     0         0      
       aeabi_dcmp.S.obj               98      0         0      
       aeabi_fcmp.S.obj               98      0         0      
       aeabi_idivmod.S.obj            86      0         0      
       aeabi_uidivmod.S.obj           64      0         0      
       extendsfdf2.S.obj              64      0         0      
       floatsisf.S.obj                60      0         0      
       muldsi3.S.obj                  58      0         0      
       fixsfsi.S.obj                  56      0         0      
       fixunssfsi.S.obj               50      0         0      
       floatunsisf.S.obj              40      0         0      
       aeabi_memset.S.obj             12      0         0      
       aeabi_memcpy.S.obj             8       0         0      
       aeabi_div0.c.obj               2       0         0      
    +--+------------------------------+-------+---------+---------+
       Total:                         2582    0         0      
                                                               
       Heap:                          0       0         2048   
       Stack:                         0       0         512    
       Linker Generated:              0       152       0      
    +--+------------------------------+-------+---------+---------+
       Grand Total:                   21982   5885      4226   


LINKER GENERATED COPY TABLES

__TI_cinit_table @ 00006cf0 records: 2, size/record: 8, table size: 16
	.data: load addr=00006c68, load size=00000074 bytes, run addr=20200c58, run size=00000231 bytes, compression=lzss
	.bss: load addr=00006ce8, load size=00000008 bytes, run addr=20200800, run size=00000455 bytes, compression=zero_init


LINKER GENERATED HANDLER TABLE

__TI_handler_table @ 00006cdc records: 3, size/record: 4, table size: 12
	index: 0, handler: __TI_decompress_lzss
	index: 1, handler: __TI_decompress_none
	index: 2, handler: __TI_zero_init


FAR CALL TRAMPOLINES

callee name               trampoline name
   callee addr  tramp addr   call addr  call info
--------------  -----------  ---------  ----------------
__aeabi_dmul              $Tramp$TT$L$PI$$__aeabi_dmul
   00002f19     00005610     0000560e   libc.a : e_asin.c.obj (.text.OUTLINED_FUNCTION_0)
                             00005628          : s_atan.c.obj (.text.OUTLINED_FUNCTION_0)
                             00005632          : e_asin.c.obj (.text.OUTLINED_FUNCTION_1)
                             00005656          : s_atan.c.obj (.text.OUTLINED_FUNCTION_2)
                             00005694          : e_asin.c.obj (.text.OUTLINED_FUNCTION_2)
__aeabi_ddiv              $Tramp$TT$L$PI$$__aeabi_ddiv
   00002669     00005640     0000563c   libc.a : e_asin.c.obj (.text.OUTLINED_FUNCTION_3)
__aeabi_dadd              $Tramp$TT$L$PI$$__aeabi_dadd
   00001683     00005680     0000567c   libc.a : s_atan.c.obj (.text.OUTLINED_FUNCTION_1)
                             000056a6          : e_asin.c.obj (.text.OUTLINED_FUNCTION_4)

[3 trampolines]
[8 trampoline calls]


GLOBAL SYMBOLS: SORTED ALPHABETICALLY BY Name 

address   name                                 
-------   ----                                 
0000569d  ADC0_IRQHandler                      
0000569d  ADC1_IRQHandler                      
0000569d  AES_IRQHandler                       
000056a0  C$$EXIT                              
000051ad  C$$IO$$                              
0000569d  CANFD0_IRQHandler                    
0000569d  DAC0_IRQHandler                      
000055fd  DL_Common_delayCycles                
00004999  DL_I2C_fillControllerTXFIFO          
00004e9d  DL_I2C_flushControllerTXFIFO         
000053ad  DL_I2C_setClockConfig                
000031c1  DL_SYSCTL_configSYSPLL               
00004dd9  DL_SYSCTL_switchMCLKfromSYSOSCtoHSCLK
00002775  DL_Timer_initFourCCPWMMode           
00002d49  DL_Timer_initTimerMode               
0000543d  DL_Timer_setCaptCompUpdateMethod     
000054e5  DL_Timer_setCaptureCompareOutCtl     
0000554d  DL_Timer_setCaptureCompareValue      
00005459  DL_Timer_setClockConfig              
0000569d  DMA_IRQHandler                       
0000569d  Default_Handler                      
00005515  Encoder_GetSpeed_PPS                 
000036c9  Encoder_IRQHandler                   
000049f9  Encoder_Init                         
00004389  Encoder_Timer_IRQHandler             
0000569d  GROUP0_IRQHandler                    
00005005  GROUP1_IRQHandler                    
00004d49  HOSTclose                            
000056a1  HOSTexit                             
000043f5  HOSTlseek                            
00004939  HOSTopen                             
00004a55  HOSTread                             
00004461  HOSTrename                           
00004d91  HOSTunlink                           
00004aad  HOSTwrite                            
0000569d  HardFault_Handler                    
0000569d  I2C0_IRQHandler                      
0000569d  I2C1_IRQHandler                      
00003791  LineTracker_GetLineState             
000053d5  LineTracker_Init                     
000055a9  LineTracker_IsLineDetected           
0000180d  LineTracker_ReadSensors              
00003859  MPU6050_Init                         
00003a71  MotorControl_Init                    
000055b5  MotorControl_SetBaseSpeed            
0000503d  MotorControl_SetMode                 
00000ecd  MotorControl_Update                  
00003f39  Motor_Init                           
00000c8d  Motor_Set_Pwm                        
00003911  Motor_Stop                           
0000569d  NMI_Handler                          
00002079  OLED_Clear                           
0000071d  OLED_Init                            
0000329d  OLED_ShowChar                        
00004139  OLED_ShowString                      
000021bd  OLED_WR_Byte                         
00002879  PID_Calculate                        
00005475  PID_Init                             
00005529  PID_Reset                            
000056a9  PID_SetTarget                        
0000569d  PendSV_Handler                       
0000569d  RTC_IRQHandler                       
000010dd  Read_Quad                            
000056ad  Reset_Handler                        
0000569d  SPI0_IRQHandler                      
0000569d  SPI1_IRQHandler                      
0000569d  SVC_Handler                          
000035fd  SYSCFG_DL_GPIO_init                  
00004b5d  SYSCFG_DL_I2C_MPU6050_init           
00004bb1  SYSCFG_DL_I2C_OLED_init              
00003d09  SYSCFG_DL_PWM_MOTOR_init             
00004319  SYSCFG_DL_SYSCTL_init                
00004cfd  SYSCFG_DL_TIMER_CALC_init            
000050e5  SYSCFG_DL_init                       
00004c05  SYSCFG_DL_initPower                  
0000555d  SysTick_Handler                      
00005075  SysTick_Init                         
0000569d  TIMA0_IRQHandler                     
000055c1  TIMA1_IRQHandler                     
0000569d  TIMG0_IRQHandler                     
0000569d  TIMG12_IRQHandler                    
0000569d  TIMG6_IRQHandler                     
0000569d  TIMG7_IRQHandler                     
0000569d  TIMG8_IRQHandler                     
000039c1  Test_LineTracker                     
0000569d  UART0_IRQHandler                     
0000569d  UART1_IRQHandler                     
0000569d  UART2_IRQHandler                     
0000569d  UART3_IRQHandler                     
20200800  _CIOBUF_                             
20200800  __CIOBUF_                            
20208000  __STACK_END                          
00000200  __STACK_SIZE                         
00000800  __SYSMEM_SIZE                        
00000000  __TI_ATRegion0_region_sz             
00000000  __TI_ATRegion0_src_addr              
00000000  __TI_ATRegion0_trg_addr              
00000000  __TI_ATRegion1_region_sz             
00000000  __TI_ATRegion1_src_addr              
00000000  __TI_ATRegion1_trg_addr              
00000000  __TI_ATRegion2_region_sz             
00000000  __TI_ATRegion2_src_addr              
00000000  __TI_ATRegion2_trg_addr              
00006cf0  __TI_CINIT_Base                      
00006d00  __TI_CINIT_Limit                     
00006d00  __TI_CINIT_Warm                      
00006cdc  __TI_Handler_Table_Base              
00006ce8  __TI_Handler_Table_Limit             
00004f51  __TI_auto_init_nobinit_nopinit       
00005119  __TI_cleanup                         
20200e3c  __TI_cleanup_ptr                     
00004041  __TI_closefile                       
000040bd  __TI_decompress_lzss                 
0000553b  __TI_decompress_none                 
00004c59  __TI_doflush                         
20200e40  __TI_dtors_ptr                       
20200e64  __TI_ft_end                          
ffffffff  __TI_pprof_out_hndl                  
ffffffff  __TI_prof_data_size                  
ffffffff  __TI_prof_data_start                 
0000514d  __TI_readmsg                         
00000000  __TI_static_base__                   
20200b64  __TI_tmpnams                         
00005181  __TI_writemsg                        
00004749  __TI_wrt_ok                          
0000556d  __TI_zero_init                       
00001683  __adddf3                             
0000345f  __addsf3                             
00004231  __aeabi_d2f                          
00001683  __aeabi_dadd                         
00004811  __aeabi_dcmpeq                       
0000484d  __aeabi_dcmpge                       
00004861  __aeabi_dcmpgt                       
00004839  __aeabi_dcmple                       
00004825  __aeabi_dcmplt                       
00002669  __aeabi_ddiv                         
00002f19  __aeabi_dmul                         
00001679  __aeabi_dsub                         
20200e68  __aeabi_errno                        
00004229  __aeabi_errno_addr                   
00004e5d  __aeabi_f2d                          
000050ad  __aeabi_f2iz                         
00005285  __aeabi_f2uiz                        
0000345f  __aeabi_fadd                         
00004875  __aeabi_fcmpeq                       
000048b1  __aeabi_fcmpge                       
000048c5  __aeabi_fcmpgt                       
0000489d  __aeabi_fcmple                       
00004889  __aeabi_fcmplt                       
00003fbd  __aeabi_fdiv                         
00003d99  __aeabi_fmul                         
00003455  __aeabi_fsub                         
00004ed9  __aeabi_i2f                          
00004b05  __aeabi_idiv                         
0000180b  __aeabi_idiv0                        
00004b05  __aeabi_idivmod                      
000055cd  __aeabi_memclr                       
000055cd  __aeabi_memclr4                      
000055cd  __aeabi_memclr8                      
00005659  __aeabi_memcpy                       
00005659  __aeabi_memcpy4                      
00005659  __aeabi_memcpy8                      
000052e5  __aeabi_ui2f                         
00004e1d  __aeabi_uidiv                        
00004e1d  __aeabi_uidivmod                     
ffffffff  __binit__                            
00004611  __cmpdf2                             
00004f8d  __cmpsf2                             
00002669  __divdf3                             
00003fbd  __divsf3                             
00004611  __eqdf2                              
00004f8d  __eqsf2                              
00004e5d  __extendsfdf2                        
000050ad  __fixsfsi                            
00005285  __fixunssfsi                         
00004ed9  __floatsisf                          
000052e5  __floatunsisf                        
000041b5  __gedf2                              
00004f15  __gesf2                              
000041b5  __gtdf2                              
00004f15  __gtsf2                              
00004611  __ledf2                              
00004f8d  __lesf2                              
00004611  __ltdf2                              
00004f8d  __ltsf2                              
UNDEFED   __mpu_init                           
00002f19  __muldf3                             
00004fc9  __muldsi3                            
00003d99  __mulsf3                             
00004611  __nedf2                              
00004f8d  __nesf2                              
20207e00  __stack                              
20200000  __start___llvm_prf_bits              
20200000  __start___llvm_prf_cnts              
20200000  __stop___llvm_prf_bits               
20200000  __stop___llvm_prf_cnts               
00001679  __subdf3                             
00003455  __subsf3                             
00004231  __truncdfsf2                         
00005385  _c_int00_noargs                      
20200d48  _device                              
20200c58  _ftable                              
20200e6c  _lock                                
00003d07  _nop                                 
20200dc0  _stream                              
20200000  _sys_memory                          
UNDEFED   _system_post_cinit                   
000056b1  _system_pre_init                     
20200e70  _unlock                              
00005697  abort                                
20200c2a  accel                                
00002555  aligned_alloc                        
000068a6  asc2_0806                            
000062b6  asc2_1608                            
000000c1  asin                                 
000000c1  asinl                                
00000425  atan                                 
00001995  atan2                                
00001995  atan2l                               
00000425  atanl                                
ffffffff  binit                                
00004cad  close                                
00005661  delay_ms                             
000009dd  dmp_enable_feature                   
00005491  dmp_load_motion_driver_firmware      
000014d1  dmp_read_fifo                        
000055d9  dmp_register_android_orient_cb       
000055e5  dmp_register_tap_cb                  
00004679  dmp_set_fifo_rate                    
00002c5d  dmp_set_orientation                  
000022f1  dmp_set_tap_thresh                   
000051b5  exit                                 
000051e9  finddevice                           
00002979  fputs                                
00002e31  free                                 
00005669  fseek                                
000044cd  fseeko                               
202009ec  gPWM_MOTORBackup                     
20200aa8  gTIMER_CALCBackup                    
20200c14  g_lineTracker                        
20200920  g_motorControl                       
00004539  getdevice                            
20200c30  gyro                                 
00006c02  hw                                   
00000000  interruptVectors                     
00005335  lseek                                
000046e1  main                                 
000055f1  malloc                               
00002555  memalign                             
00003c6d  memcpy                               
000048d7  memset                               
20200c54  more                                 
00003e25  mpu6050_i2c_sda_unlock               
00003b1d  mpu_configure_fifo                   
0000521d  mpu_get_accel_fsr                    
0000541d  mpu_get_gyro_fsr                     
000054c9  mpu_get_sample_rate                  
00002b69  mpu_init                             
00001f31  mpu_load_firmware                    
000012ed  mpu_lp_accel_mode                    
00003bc9  mpu_read_fifo_stream                 
00001de1  mpu_reset_fifo                       
00002a71  mpu_set_bypass                       
0000352d  mpu_set_dmp_state                    
000042a5  mpu_set_lpf                          
00002ffd  mpu_set_sample_rate                  
00003379  mpu_set_sensors                      
000045a5  mpu_write_mem                        
00005251  mspm0_delay_ms                       
000054fd  mspm0_get_clock_ms                   
00001c8d  mspm0_i2c_read                       
00002425  mspm0_i2c_write                      
20200c22  parmbuf                              
20200c3c  pitch                                
000053f9  puts                                 
20200c04  quat                                 
00006b98  reg                                  
00005671  remove                               
20200c40  roll                                 
20200c44  sensor_timestamp                     
20200c36  sensors                              
000030e1  setvbuf                              
00001b1d  sqrt                                 
00001b1d  sqrtl                                
20200c48  start_time                           
00003eb1  strcmp                               
00006b70  test                                 
20200c4c  tick_ms                              
000052b9  unlink                               
0000535d  write                                
20200c50  yaw                                  


GLOBAL SYMBOLS: SORTED BY Symbol Address 

address   name                                 
-------   ----                                 
00000000  __TI_ATRegion0_region_sz             
00000000  __TI_ATRegion0_src_addr              
00000000  __TI_ATRegion0_trg_addr              
00000000  __TI_ATRegion1_region_sz             
00000000  __TI_ATRegion1_src_addr              
00000000  __TI_ATRegion1_trg_addr              
00000000  __TI_ATRegion2_region_sz             
00000000  __TI_ATRegion2_src_addr              
00000000  __TI_ATRegion2_trg_addr              
00000000  __TI_static_base__                   
00000000  interruptVectors                     
000000c1  asin                                 
000000c1  asinl                                
00000200  __STACK_SIZE                         
00000425  atan                                 
00000425  atanl                                
0000071d  OLED_Init                            
00000800  __SYSMEM_SIZE                        
000009dd  dmp_enable_feature                   
00000c8d  Motor_Set_Pwm                        
00000ecd  MotorControl_Update                  
000010dd  Read_Quad                            
000012ed  mpu_lp_accel_mode                    
000014d1  dmp_read_fifo                        
00001679  __aeabi_dsub                         
00001679  __subdf3                             
00001683  __adddf3                             
00001683  __aeabi_dadd                         
0000180b  __aeabi_idiv0                        
0000180d  LineTracker_ReadSensors              
00001995  atan2                                
00001995  atan2l                               
00001b1d  sqrt                                 
00001b1d  sqrtl                                
00001c8d  mspm0_i2c_read                       
00001de1  mpu_reset_fifo                       
00001f31  mpu_load_firmware                    
00002079  OLED_Clear                           
000021bd  OLED_WR_Byte                         
000022f1  dmp_set_tap_thresh                   
00002425  mspm0_i2c_write                      
00002555  aligned_alloc                        
00002555  memalign                             
00002669  __aeabi_ddiv                         
00002669  __divdf3                             
00002775  DL_Timer_initFourCCPWMMode           
00002879  PID_Calculate                        
00002979  fputs                                
00002a71  mpu_set_bypass                       
00002b69  mpu_init                             
00002c5d  dmp_set_orientation                  
00002d49  DL_Timer_initTimerMode               
00002e31  free                                 
00002f19  __aeabi_dmul                         
00002f19  __muldf3                             
00002ffd  mpu_set_sample_rate                  
000030e1  setvbuf                              
000031c1  DL_SYSCTL_configSYSPLL               
0000329d  OLED_ShowChar                        
00003379  mpu_set_sensors                      
00003455  __aeabi_fsub                         
00003455  __subsf3                             
0000345f  __addsf3                             
0000345f  __aeabi_fadd                         
0000352d  mpu_set_dmp_state                    
000035fd  SYSCFG_DL_GPIO_init                  
000036c9  Encoder_IRQHandler                   
00003791  LineTracker_GetLineState             
00003859  MPU6050_Init                         
00003911  Motor_Stop                           
000039c1  Test_LineTracker                     
00003a71  MotorControl_Init                    
00003b1d  mpu_configure_fifo                   
00003bc9  mpu_read_fifo_stream                 
00003c6d  memcpy                               
00003d07  _nop                                 
00003d09  SYSCFG_DL_PWM_MOTOR_init             
00003d99  __aeabi_fmul                         
00003d99  __mulsf3                             
00003e25  mpu6050_i2c_sda_unlock               
00003eb1  strcmp                               
00003f39  Motor_Init                           
00003fbd  __aeabi_fdiv                         
00003fbd  __divsf3                             
00004041  __TI_closefile                       
000040bd  __TI_decompress_lzss                 
00004139  OLED_ShowString                      
000041b5  __gedf2                              
000041b5  __gtdf2                              
00004229  __aeabi_errno_addr                   
00004231  __aeabi_d2f                          
00004231  __truncdfsf2                         
000042a5  mpu_set_lpf                          
00004319  SYSCFG_DL_SYSCTL_init                
00004389  Encoder_Timer_IRQHandler             
000043f5  HOSTlseek                            
00004461  HOSTrename                           
000044cd  fseeko                               
00004539  getdevice                            
000045a5  mpu_write_mem                        
00004611  __cmpdf2                             
00004611  __eqdf2                              
00004611  __ledf2                              
00004611  __ltdf2                              
00004611  __nedf2                              
00004679  dmp_set_fifo_rate                    
000046e1  main                                 
00004749  __TI_wrt_ok                          
00004811  __aeabi_dcmpeq                       
00004825  __aeabi_dcmplt                       
00004839  __aeabi_dcmple                       
0000484d  __aeabi_dcmpge                       
00004861  __aeabi_dcmpgt                       
00004875  __aeabi_fcmpeq                       
00004889  __aeabi_fcmplt                       
0000489d  __aeabi_fcmple                       
000048b1  __aeabi_fcmpge                       
000048c5  __aeabi_fcmpgt                       
000048d7  memset                               
00004939  HOSTopen                             
00004999  DL_I2C_fillControllerTXFIFO          
000049f9  Encoder_Init                         
00004a55  HOSTread                             
00004aad  HOSTwrite                            
00004b05  __aeabi_idiv                         
00004b05  __aeabi_idivmod                      
00004b5d  SYSCFG_DL_I2C_MPU6050_init           
00004bb1  SYSCFG_DL_I2C_OLED_init              
00004c05  SYSCFG_DL_initPower                  
00004c59  __TI_doflush                         
00004cad  close                                
00004cfd  SYSCFG_DL_TIMER_CALC_init            
00004d49  HOSTclose                            
00004d91  HOSTunlink                           
00004dd9  DL_SYSCTL_switchMCLKfromSYSOSCtoHSCLK
00004e1d  __aeabi_uidiv                        
00004e1d  __aeabi_uidivmod                     
00004e5d  __aeabi_f2d                          
00004e5d  __extendsfdf2                        
00004e9d  DL_I2C_flushControllerTXFIFO         
00004ed9  __aeabi_i2f                          
00004ed9  __floatsisf                          
00004f15  __gesf2                              
00004f15  __gtsf2                              
00004f51  __TI_auto_init_nobinit_nopinit       
00004f8d  __cmpsf2                             
00004f8d  __eqsf2                              
00004f8d  __lesf2                              
00004f8d  __ltsf2                              
00004f8d  __nesf2                              
00004fc9  __muldsi3                            
00005005  GROUP1_IRQHandler                    
0000503d  MotorControl_SetMode                 
00005075  SysTick_Init                         
000050ad  __aeabi_f2iz                         
000050ad  __fixsfsi                            
000050e5  SYSCFG_DL_init                       
00005119  __TI_cleanup                         
0000514d  __TI_readmsg                         
00005181  __TI_writemsg                        
000051ad  C$$IO$$                              
000051b5  exit                                 
000051e9  finddevice                           
0000521d  mpu_get_accel_fsr                    
00005251  mspm0_delay_ms                       
00005285  __aeabi_f2uiz                        
00005285  __fixunssfsi                         
000052b9  unlink                               
000052e5  __aeabi_ui2f                         
000052e5  __floatunsisf                        
00005335  lseek                                
0000535d  write                                
00005385  _c_int00_noargs                      
000053ad  DL_I2C_setClockConfig                
000053d5  LineTracker_Init                     
000053f9  puts                                 
0000541d  mpu_get_gyro_fsr                     
0000543d  DL_Timer_setCaptCompUpdateMethod     
00005459  DL_Timer_setClockConfig              
00005475  PID_Init                             
00005491  dmp_load_motion_driver_firmware      
000054c9  mpu_get_sample_rate                  
000054e5  DL_Timer_setCaptureCompareOutCtl     
000054fd  mspm0_get_clock_ms                   
00005515  Encoder_GetSpeed_PPS                 
00005529  PID_Reset                            
0000553b  __TI_decompress_none                 
0000554d  DL_Timer_setCaptureCompareValue      
0000555d  SysTick_Handler                      
0000556d  __TI_zero_init                       
000055a9  LineTracker_IsLineDetected           
000055b5  MotorControl_SetBaseSpeed            
000055c1  TIMA1_IRQHandler                     
000055cd  __aeabi_memclr                       
000055cd  __aeabi_memclr4                      
000055cd  __aeabi_memclr8                      
000055d9  dmp_register_android_orient_cb       
000055e5  dmp_register_tap_cb                  
000055f1  malloc                               
000055fd  DL_Common_delayCycles                
00005659  __aeabi_memcpy                       
00005659  __aeabi_memcpy4                      
00005659  __aeabi_memcpy8                      
00005661  delay_ms                             
00005669  fseek                                
00005671  remove                               
00005697  abort                                
0000569d  ADC0_IRQHandler                      
0000569d  ADC1_IRQHandler                      
0000569d  AES_IRQHandler                       
0000569d  CANFD0_IRQHandler                    
0000569d  DAC0_IRQHandler                      
0000569d  DMA_IRQHandler                       
0000569d  Default_Handler                      
0000569d  GROUP0_IRQHandler                    
0000569d  HardFault_Handler                    
0000569d  I2C0_IRQHandler                      
0000569d  I2C1_IRQHandler                      
0000569d  NMI_Handler                          
0000569d  PendSV_Handler                       
0000569d  RTC_IRQHandler                       
0000569d  SPI0_IRQHandler                      
0000569d  SPI1_IRQHandler                      
0000569d  SVC_Handler                          
0000569d  TIMA0_IRQHandler                     
0000569d  TIMG0_IRQHandler                     
0000569d  TIMG12_IRQHandler                    
0000569d  TIMG6_IRQHandler                     
0000569d  TIMG7_IRQHandler                     
0000569d  TIMG8_IRQHandler                     
0000569d  UART0_IRQHandler                     
0000569d  UART1_IRQHandler                     
0000569d  UART2_IRQHandler                     
0000569d  UART3_IRQHandler                     
000056a0  C$$EXIT                              
000056a1  HOSTexit                             
000056a9  PID_SetTarget                        
000056ad  Reset_Handler                        
000056b1  _system_pre_init                     
000062b6  asc2_1608                            
000068a6  asc2_0806                            
00006b70  test                                 
00006b98  reg                                  
00006c02  hw                                   
00006cdc  __TI_Handler_Table_Base              
00006ce8  __TI_Handler_Table_Limit             
00006cf0  __TI_CINIT_Base                      
00006d00  __TI_CINIT_Limit                     
00006d00  __TI_CINIT_Warm                      
20200000  __start___llvm_prf_bits              
20200000  __start___llvm_prf_cnts              
20200000  __stop___llvm_prf_bits               
20200000  __stop___llvm_prf_cnts               
20200000  _sys_memory                          
20200800  _CIOBUF_                             
20200800  __CIOBUF_                            
20200920  g_motorControl                       
202009ec  gPWM_MOTORBackup                     
20200aa8  gTIMER_CALCBackup                    
20200b64  __TI_tmpnams                         
20200c04  quat                                 
20200c14  g_lineTracker                        
20200c22  parmbuf                              
20200c2a  accel                                
20200c30  gyro                                 
20200c36  sensors                              
20200c3c  pitch                                
20200c40  roll                                 
20200c44  sensor_timestamp                     
20200c48  start_time                           
20200c4c  tick_ms                              
20200c50  yaw                                  
20200c54  more                                 
20200c58  _ftable                              
20200d48  _device                              
20200dc0  _stream                              
20200e3c  __TI_cleanup_ptr                     
20200e40  __TI_dtors_ptr                       
20200e64  __TI_ft_end                          
20200e68  __aeabi_errno                        
20200e6c  _lock                                
20200e70  _unlock                              
20207e00  __stack                              
20208000  __STACK_END                          
ffffffff  __TI_pprof_out_hndl                  
ffffffff  __TI_prof_data_size                  
ffffffff  __TI_prof_data_start                 
ffffffff  __binit__                            
ffffffff  binit                                
UNDEFED   __mpu_init                           
UNDEFED   _system_post_cinit                   

[291 symbols]
